; Function Attrs: mustprogress uwtable
define hidden void @_ZNK19OpenColorIO_v2_5dev19MatrixTransformImpl18createEditableCopyEv(ptr dead_on_unwind noalias writable writeonly sret(%"class.std::shared_ptr.13") align 8 captures(none) %0, ptr noundef nonnull align 8 dereferenceable(272) %1) unnamed_addr #3 align 2 personality ptr @__gxx_personality_v0 {
  %3 = alloca %"class.std::shared_ptr", align 8
  call void @llvm.lifetime.start.p0(i64 16, ptr nonnull %3) #27
  call void @_ZN19OpenColorIO_v2_5dev15MatrixTransform6CreateEv(ptr dead_on_unwind nonnull writable sret(%"class.std::shared_ptr") align 8 %3)
  %4 = getelementptr inbounds nuw i8, ptr %1, i64 8
  %5 = load ptr, ptr %3, align 8, !tbaa !6, !nonnull !23, !noundef !23
  %6 = tail call ptr @__dynamic_cast(ptr nonnull %5, ptr nonnull @_ZTIN19OpenColorIO_v2_5dev15MatrixTransformE, ptr nonnull @_ZTIN19OpenColorIO_v2_5dev19MatrixTransformImplE, i64 0) #27
  %7 = getelementptr inbounds nuw i8, ptr %6, i64 8
  %8 = invoke noundef nonnull align 8 dereferenceable(168) ptr @_ZN19OpenColorIO_v2_5dev6OpDataaSERKS0_(ptr noundef nonnull align 8 dereferenceable(260) %7, ptr noundef nonnull align 8 dereferenceable(260) %4)
          to label %.noexc unwind label %22

.noexc:                                           ; preds = %2
  %9 = getelementptr inbounds nuw i8, ptr %6, i64 184
  %10 = getelementptr inbounds nuw i8, ptr %1, i64 184
  tail call void @llvm.memcpy.p0.p0.i64(ptr noundef nonnull align 8 dereferenceable(16) %9, ptr noundef nonnull align 8 dereferenceable(16) %10, i64 16, i1 false)
  %11 = getelementptr inbounds nuw i8, ptr %6, i64 200
  %12 = getelementptr inbounds nuw i8, ptr %1, i64 200
  %13 = invoke noundef nonnull align 8 dereferenceable(24) ptr @_ZNSt6vectorIdSaIdEEaSERKS1_(ptr noundef nonnull align 8 dereferenceable(24) %11, ptr noundef nonnull align 8 dereferenceable(24) %12)
          to label %.noexc2 unwind label %22

.noexc2:                                          ; preds = %.noexc
  %14 = getelementptr inbounds nuw i8, ptr %6, i64 224
  %15 = getelementptr inbounds nuw i8, ptr %1, i64 224
  %16 = invoke noundef nonnull align 8 dereferenceable(32) ptr @_ZN19OpenColorIO_v2_5dev12MatrixOpData7OffsetsaSERKS1_(ptr noundef nonnull align 8 dereferenceable(32) %14, ptr noundef nonnull align 8 dereferenceable(32) %15)
          to label %_ZNSt12__shared_ptrIN19OpenColorIO_v2_5dev15MatrixTransformELN9__gnu_cxx12_Lock_policyE2EED2Ev.exit unwind label %22

_ZNSt12__shared_ptrIN19OpenColorIO_v2_5dev15MatrixTransformELN9__gnu_cxx12_Lock_policyE2EED2Ev.exit: ; preds = %.noexc2
  %17 = getelementptr inbounds nuw i8, ptr %6, i64 256
  %18 = getelementptr inbounds nuw i8, ptr %1, i64 256
  tail call void @llvm.memcpy.p0.p0.i64(ptr noundef nonnull align 8 dereferenceable(12) %17, ptr noundef nonnull align 8 dereferenceable(12) %18, i64 12, i1 false)
  store ptr %5, ptr %0, align 8, !tbaa !24
  %19 = getelementptr inbounds nuw i8, ptr %0, i64 8
  %20 = getelementptr inbounds nuw i8, ptr %3, i64 8
  %21 = load ptr, ptr %20, align 8, !tbaa !13
  store ptr %21, ptr %19, align 8, !tbaa !13
  call void @llvm.lifetime.end.p0(i64 16, ptr nonnull %3) #27
  ret void

22:                                               ; preds = %.noexc2, %.noexc, %2
  %23 = landingpad { ptr, i32 }
          cleanup
  call void @_ZNSt12__shared_ptrIN19OpenColorIO_v2_5dev15MatrixTransformELN9__gnu_cxx12_Lock_policyE2EED2Ev(ptr noundef nonnull align 8 dereferenceable(16) %3) #27
  call void @llvm.lifetime.end.p0(i64 16, ptr nonnull %3) #27
  resume { ptr, i32 } %23
}